; Function Attrs: mustprogress uwtable
define dso_local void @_ZN21cmGeneratedFileStream16WriteAltEncodingERKNSt7__cxx1112basic_stringIcSt11char_traitsIcESaIcEEE16codecvt_Encoding(ptr noundef nonnull align 8 dereferenceable(348) %0, ptr noundef nonnull align 8 dereferenceable(32) %1, i32 noundef %2) local_unnamed_addr #3 align 2 personality ptr @__gxx_personality_v0 {
  %4 = alloca %"class.std::locale", align 8
  %5 = alloca %"class.std::locale", align 8
  %6 = alloca %"class.std::locale", align 8
  %7 = alloca %"class.std::locale", align 8
  %8 = load ptr, ptr %0, align 8
  %9 = getelementptr i8, ptr %8, i64 -24
  %10 = load i64, ptr %9, align 8
  %11 = getelementptr inbounds i8, ptr %0, i64 %10
  %12 = getelementptr inbounds i8, ptr %11, i64 208
  call void @_ZNSt6localeC1ERKS_(ptr noundef nonnull align 8 dereferenceable(8) %6, ptr noundef nonnull align 8 dereferenceable(8) %12) #15
  %13 = invoke noalias noundef nonnull dereferenceable(32) ptr @_Znwm(i64 noundef 32) #16
          to label %14 unwind label %27

14:                                               ; preds = %3
  invoke void @_ZN7codecvtC1E16codecvt_Encoding(ptr noundef nonnull align 8 dereferenceable(25) %13, i32 noundef %2)
          to label %15 unwind label %29

15:                                               ; preds = %14
  invoke void @_ZNSt6localeC2I7codecvtEERKS_PT_(ptr noundef nonnull align 8 dereferenceable(8) %5, ptr noundef nonnull align 8 dereferenceable(8) %6, ptr noundef nonnull %13)
          to label %16 unwind label %27

16:                                               ; preds = %15
  invoke void @_ZNSt9basic_iosIcSt11char_traitsIcEE5imbueERKSt6locale(ptr dead_on_unwind nonnull writable sret(%"class.std::locale") align 8 %4, ptr noundef nonnull align 8 dereferenceable(264) %11, ptr noundef nonnull align 8 dereferenceable(8) %5)
          to label %17 unwind label %31

17:                                               ; preds = %16
  call void @_ZNSt6localeD1Ev(ptr noundef nonnull align 8 dereferenceable(8) %5) #15
  call void @_ZNSt6localeD1Ev(ptr noundef nonnull align 8 dereferenceable(8) %6) #15
  %18 = call noundef ptr @_ZNKSt7__cxx1112basic_stringIcSt11char_traitsIcESaIcEE4dataEv(ptr noundef nonnull align 8 dereferenceable(32) %1) #15
  %19 = call noundef i64 @_ZNKSt7__cxx1112basic_stringIcSt11char_traitsIcESaIcEE4sizeEv(ptr noundef nonnull align 8 dereferenceable(32) %1) #15
  %20 = invoke noundef nonnull align 8 dereferenceable(8) ptr @_ZNSo5writeEPKcl(ptr noundef nonnull align 8 dereferenceable(8) %0, ptr noundef %18, i64 noundef %19)
          to label %21 unwind label %33

21:                                               ; preds = %17
  %22 = load ptr, ptr %0, align 8
  %23 = getelementptr i8, ptr %22, i64 -24
  %24 = load i64, ptr %23, align 8
  %25 = getelementptr inbounds i8, ptr %0, i64 %24
  invoke void @_ZNSt9basic_iosIcSt11char_traitsIcEE5imbueERKSt6locale(ptr dead_on_unwind nonnull writable sret(%"class.std::locale") align 8 %7, ptr noundef nonnull align 8 dereferenceable(264) %25, ptr noundef nonnull align 8 dereferenceable(8) %4)
          to label %26 unwind label %33

26:                                               ; preds = %21
  call void @_ZNSt6localeD1Ev(ptr noundef nonnull align 8 dereferenceable(8) %7) #15
  call void @_ZNSt6localeD1Ev(ptr noundef nonnull align 8 dereferenceable(8) %4) #15
  ret void

27:                                               ; preds = %15, %3
  %28 = landingpad { ptr, i32 }
          cleanup
  br label %35

29:                                               ; preds = %14
  %30 = landingpad { ptr, i32 }
          cleanup
  call void @_ZdlPv(ptr noundef nonnull %13) #17
  br label %35

31:                                               ; preds = %16
  %32 = landingpad { ptr, i32 }
          cleanup
  call void @_ZNSt6localeD1Ev(ptr noundef nonnull align 8 dereferenceable(8) %5) #15
  br label %35

33:                                               ; preds = %21, %17
  %34 = landingpad { ptr, i32 }
          cleanup
  br label %35

35:                                               ; preds = %27, %29, %31, %33
  %.sink = phi ptr [ %4, %33 ], [ %6, %31 ], [ %6, %29 ], [ %6, %27 ]
  %.pn8 = phi { ptr, i32 } [ %34, %33 ], [ %32, %31 ], [ %30, %29 ], [ %28, %27 ]
  call void @_ZNSt6localeD1Ev(ptr noundef nonnull align 8 dereferenceable(8) %.sink) #15
  resume { ptr, i32 } %.pn8
}